target datalayout = "e-m:e-p270:32:32-p271:32:32-p272:64:64-i64:64-i128:128-f80:128-n8:16:32:64-S128"
target triple = "x86_64-unknown-linux-gnu"

%struct.USBPortOps = type { ptr, ptr, ptr, ptr, ptr }
%struct.USBBusOps = type { ptr, ptr }
%struct.MemoryRegionOps = type { ptr, ptr, ptr, ptr, i32, %struct.anon, %struct.anon.9 }
%struct.anon = type { i32, i32, i8, ptr }
%struct.anon.9 = type { i32, i32, i8 }
%struct.UHCIInfo = type { ptr, i16, i16, i8, i8, ptr, i8, i8 }
%struct.UHCIState = type { %struct.PCIDevice, %struct.MemoryRegion, %struct.USBBus, i16, i16, i16, i16, i32, i8, i8, i64, ptr, ptr, i32, i32, i8, [2 x %struct.UHCIPort], ptr, i32, %union.anon.8, i8, ptr, i32, i32 }
%struct.PCIDevice = type { %struct.DeviceState, i8, i8, ptr, ptr, ptr, ptr, ptr, i32, %struct.PCIReqIDCache, [64 x i8], [7 x %struct.PCIIORegion], %struct.AddressSpace, %struct.MemoryRegion, %struct.MemoryRegion, ptr, ptr, [3 x ptr], i8, i8, i32, i8, i32, ptr, ptr, ptr, ptr, ptr, ptr, %struct.MemoryRegion, %struct.MemoryRegion, %struct.MemoryRegion, ptr, i8, i32, i8, %struct.PCIExpressDevice, ptr, ptr, i32, i8, %struct.MemoryRegion, i32, ptr, ptr, ptr, ptr, ptr, i32 }
%struct.DeviceState = type { %struct.Object, ptr, ptr, i8, i8, i64, ptr, i32, i8, ptr, %struct.NamedGPIOListHead, %struct.NamedClockListHead, %struct.BusStateHead, i32, i32, i32, %struct.ResettableState, ptr, %struct.MemReentrancyGuard }
%struct.Object = type { ptr, ptr, ptr, i32, ptr }
%struct.NamedGPIOListHead = type { ptr }
%struct.NamedClockListHead = type { ptr }
%struct.BusStateHead = type { ptr }
%struct.ResettableState = type { i32, i8, i8 }
%struct.MemReentrancyGuard = type { i8 }
%struct.PCIReqIDCache = type { ptr, i32 }
%struct.PCIIORegion = type { i64, i64, i8, ptr, ptr }
%struct.AddressSpace = type { %struct.rcu_head, ptr, ptr, ptr, i32, i32, ptr, %union.anon, %union.anon.0 }
%struct.rcu_head = type { ptr, ptr }
%union.anon = type { %struct.QTailQLink }
%struct.QTailQLink = type { ptr, ptr }
%union.anon.0 = type { %struct.QTailQLink }
%struct.PCIExpressDevice = type { i8, i8, i8, i16, %struct.PCIEAERLog, i16, i16, i16, %struct.PCIESriovPF, %struct.PCIESriovVF }
%struct.PCIEAERLog = type { i16, i16, ptr }
%struct.PCIESriovPF = type { i16, [7 x i8], ptr, ptr }
%struct.PCIESriovVF = type { ptr, i16 }
%struct.MemoryRegion = type { %struct.Object, i8, i8, i8, i8, i8, i8, i8, i8, i8, i8, ptr, ptr, ptr, ptr, ptr, ptr, i32, i128, i64, ptr, i64, i8, i8, i8, i8, i8, ptr, i64, i32, %union.anon.1, %union.anon.2, %union.anon.3, ptr, i32, ptr, ptr, i8 }
%union.anon.1 = type { %struct.QTailQLink }
%union.anon.2 = type { %struct.QTailQLink }
%union.anon.3 = type { %struct.QTailQLink }
%struct.USBBus = type { %struct.BusState, ptr, i32, i32, i32, %union.anon.4, %union.anon.5, %union.anon.6 }
%struct.BusState = type { %struct.Object, ptr, ptr, ptr, i32, i8, i8, i32, %union.BusChildHead, %struct.BusStateEntry, %struct.ResettableState }
%union.BusChildHead = type { %struct.QTailQLink }
%struct.BusStateEntry = type { ptr, ptr }
%union.anon.4 = type { %struct.QTailQLink }
%union.anon.5 = type { %struct.QTailQLink }
%union.anon.6 = type { %struct.QTailQLink }
%struct.UHCIPort = type { %struct.USBPort, i16 }
%struct.USBPort = type { ptr, i32, i32, [16 x i8], ptr, ptr, i32, %union.anon.7 }
%union.anon.7 = type { %struct.QTailQLink }
%union.anon.8 = type { %struct.QTailQLink }
%struct.UHCIPCIDeviceClass = type { %struct.PCIDeviceClass, %struct.UHCIInfo }
%struct.PCIDeviceClass = type { %struct.DeviceClass, ptr, ptr, ptr, ptr, i16, i16, i8, i16, i16, i16, ptr }
%struct.DeviceClass = type { %struct.ObjectClass, [1 x i64], ptr, ptr, ptr, i8, i8, ptr, ptr, ptr, ptr, ptr }
%struct.ObjectClass = type { ptr, ptr, [4 x ptr], [4 x ptr], ptr, ptr }

@uhci_port_ops = internal global %struct.USBPortOps { ptr @uhci_attach, ptr @uhci_detach, ptr @uhci_child_detach, ptr @uhci_wakeup, ptr @uhci_async_complete }, align 8
@uhci_bus_ops = internal global %struct.USBBusOps zeroinitializer, align 8
@.str = private unnamed_addr constant [8 x i8] c"uhci_bh\00", align 1
@uhci_ioport_ops = internal constant %struct.MemoryRegionOps { ptr @uhci_port_read, ptr @uhci_port_write, ptr null, ptr null, i32 2, %struct.anon { i32 1, i32 4, i8 0, ptr null }, %struct.anon.9 { i32 2, i32 2, i8 0 } }, align 8
@.str.1 = private unnamed_addr constant [5 x i8] c"uhci\00", align 1
@.str.2 = private unnamed_addr constant [13 x i8] c"pci-uhci-usb\00", align 1
@.str.3 = private unnamed_addr constant [26 x i8] c"../qemu/hw/usb/hcd-uhci.h\00", align 1
@__func__.UHCI_GET_CLASS = private unnamed_addr constant [15 x i8] c"UHCI_GET_CLASS\00", align 1
@__func__.UHCI = private unnamed_addr constant [5 x i8] c"UHCI\00", align 1
@.str.13 = private unnamed_addr constant [7 x i8] c"device\00", align 1
@.str.14 = private unnamed_addr constant [101 x i8] c"/home/dtcxzyw/WorkSpace/Projects/compilers/llvm-opt-benchmark/bench/qemu/qemu/include/hw/qdev-core.h\00", align 1
@__func__.DEVICE = private unnamed_addr constant [7 x i8] c"DEVICE\00", align 1

; Function Attrs: nounwind sspstrong uwtable
define internal ptr @timer_new_full(ptr noundef %timer_list_group, i32 noundef %type, i32 noundef %scale, i32 noundef %attributes, ptr noundef %cb, ptr noundef %opaque) #0 {
entry:
  %timer_list_group.addr = alloca ptr, align 8
  %type.addr = alloca i32, align 4
  %scale.addr = alloca i32, align 4
  %attributes.addr = alloca i32, align 4
  %cb.addr = alloca ptr, align 8
  %opaque.addr = alloca ptr, align 8
  %ts = alloca ptr, align 8
  store ptr %timer_list_group, ptr %timer_list_group.addr, align 8
  store i32 %type, ptr %type.addr, align 4
  store i32 %scale, ptr %scale.addr, align 4
  store i32 %attributes, ptr %attributes.addr, align 4
  store ptr %cb, ptr %cb.addr, align 8
  store ptr %opaque, ptr %opaque.addr, align 8
  %call = call noalias ptr @g_malloc0_n(i64 noundef 1, i64 noundef 48) #10
  store ptr %call, ptr %ts, align 8
  %0 = load ptr, ptr %ts, align 8
  %1 = load ptr, ptr %timer_list_group.addr, align 8
  %2 = load i32, ptr %type.addr, align 4
  %3 = load i32, ptr %scale.addr, align 4
  %4 = load i32, ptr %attributes.addr, align 4
  %5 = load ptr, ptr %cb.addr, align 8
  %6 = load ptr, ptr %opaque.addr, align 8
  call void @timer_init_full(ptr noundef %0, ptr noundef %1, i32 noundef %2, i32 noundef %3, i32 noundef %4, ptr noundef %5, ptr noundef %6)
  %7 = load ptr, ptr %ts, align 8
  ret ptr %7
}

; Function Attrs: nounwind sspstrong uwtable
define internal ptr @timer_new(i32 noundef %type, i32 noundef %scale, ptr noundef %cb, ptr noundef %opaque) #0 {
entry:
  %type.addr = alloca i32, align 4
  %scale.addr = alloca i32, align 4
  %cb.addr = alloca ptr, align 8
  %opaque.addr = alloca ptr, align 8
  store i32 %type, ptr %type.addr, align 4
  store i32 %scale, ptr %scale.addr, align 4
  store ptr %cb, ptr %cb.addr, align 8
  store ptr %opaque, ptr %opaque.addr, align 8
  %0 = load i32, ptr %type.addr, align 4
  %1 = load i32, ptr %scale.addr, align 4
  %2 = load ptr, ptr %cb.addr, align 8
  %3 = load ptr, ptr %opaque.addr, align 8
  %call = call ptr @timer_new_full(ptr noundef null, i32 noundef %0, i32 noundef %1, i32 noundef 0, ptr noundef %2, ptr noundef %3)
  ret ptr %call
}

; Function Attrs: nounwind sspstrong uwtable
define internal void @pci_set_byte(ptr noundef %config, i8 noundef zeroext %val) #0 {
entry:
  %config.addr = alloca ptr, align 8
  %val.addr = alloca i8, align 1
  store ptr %config, ptr %config.addr, align 8
  store i8 %val, ptr %val.addr, align 1
  %0 = load i8, ptr %val.addr, align 1
  %1 = load ptr, ptr %config.addr, align 8
  store i8 %0, ptr %1, align 1
  ret void
}

; Function Attrs: nounwind sspstrong uwtable
define internal ptr @timer_new_ns(i32 noundef %type, ptr noundef %cb, ptr noundef %opaque) #0 {
entry:
  %type.addr = alloca i32, align 4
  %cb.addr = alloca ptr, align 8
  %opaque.addr = alloca ptr, align 8
  store i32 %type, ptr %type.addr, align 4
  store ptr %cb, ptr %cb.addr, align 8
  store ptr %opaque, ptr %opaque.addr, align 8
  %0 = load i32, ptr %type.addr, align 4
  %1 = load ptr, ptr %cb.addr, align 8
  %2 = load ptr, ptr %opaque.addr, align 8
  %call = call ptr @timer_new(i32 noundef %0, i32 noundef 1, ptr noundef %1, ptr noundef %2)
  ret ptr %call
}

; Function Attrs: nounwind sspstrong uwtable
define internal ptr @DEVICE(ptr noundef %obj) #0 {
entry:
  %obj.addr = alloca ptr, align 8
  store ptr %obj, ptr %obj.addr, align 8
  %0 = load ptr, ptr %obj.addr, align 8
  %call = call ptr @object_dynamic_cast_assert(ptr noundef %0, ptr noundef @.str.13, ptr noundef @.str.14, i32 noundef 77, ptr noundef @__func__.DEVICE)
  ret ptr %call
}

; Function Attrs: nounwind sspstrong uwtable
define internal void @pci_config_set_interrupt_pin(ptr noundef %pci_config, i8 noundef zeroext %val) #0 {
entry:
  %pci_config.addr = alloca ptr, align 8
  %val.addr = alloca i8, align 1
  store ptr %pci_config, ptr %pci_config.addr, align 8
  store i8 %val, ptr %val.addr, align 1
  %0 = load ptr, ptr %pci_config.addr, align 8
  %arrayidx = getelementptr i8, ptr %0, i64 61
  %1 = load i8, ptr %val.addr, align 1
  call void @pci_set_byte(ptr noundef %arrayidx, i8 noundef zeroext %1)
  ret void
}

; Function Attrs: nounwind sspstrong uwtable
define internal ptr @UHCI(ptr noundef %obj) #0 {
entry:
  %obj.addr = alloca ptr, align 8
  store ptr %obj, ptr %obj.addr, align 8
  %0 = load ptr, ptr %obj.addr, align 8
  %call = call ptr @object_dynamic_cast_assert(ptr noundef %0, ptr noundef @.str.2, ptr noundef @.str.3, i32 noundef 78, ptr noundef @__func__.UHCI)
  ret ptr %call
}

; Function Attrs: nounwind sspstrong uwtable
define internal ptr @UHCI_GET_CLASS(ptr noundef %obj) #0 {
entry:
  %obj.addr = alloca ptr, align 8
  store ptr %obj, ptr %obj.addr, align 8
  %0 = load ptr, ptr %obj.addr, align 8
  %call = call ptr @object_get_class(ptr noundef %0)
  %call1 = call ptr @object_class_dynamic_cast_assert(ptr noundef %call, ptr noundef @.str.2, ptr noundef @.str.3, i32 noundef 78, ptr noundef @__func__.UHCI_GET_CLASS)
  ret ptr %call1
}

; Function Attrs: nounwind sspstrong uwtable
define dso_local void @usb_uhci_common_realize(ptr noundef %dev, ptr noundef %errp) #0 {
entry:
  %dev.addr = alloca ptr, align 8
  %errp.addr = alloca ptr, align 8
  %err = alloca ptr, align 8
  %u = alloca ptr, align 8
  %s = alloca ptr, align 8
  %pci_conf = alloca ptr, align 8
  %i = alloca i32, align 4
  %ports = alloca [2 x ptr], align 16
  store ptr %dev, ptr %dev.addr, align 8
  store ptr %errp, ptr %errp.addr, align 8
  store ptr null, ptr %err, align 8
  %0 = load ptr, ptr %dev.addr, align 8
  %call = call ptr @UHCI_GET_CLASS(ptr noundef %0)
  store ptr %call, ptr %u, align 8
  %1 = load ptr, ptr %dev.addr, align 8
  %call1 = call ptr @UHCI(ptr noundef %1)
  store ptr %call1, ptr %s, align 8
  %2 = load ptr, ptr %s, align 8
  %dev2 = getelementptr inbounds %struct.UHCIState, ptr %2, i32 0, i32 0
  %config = getelementptr inbounds %struct.PCIDevice, ptr %dev2, i32 0, i32 3
  %3 = load ptr, ptr %config, align 8
  store ptr %3, ptr %pci_conf, align 8
  %4 = load ptr, ptr %pci_conf, align 8
  %arrayidx = getelementptr i8, ptr %4, i64 9
  store i8 0, ptr %arrayidx, align 1
  %5 = load ptr, ptr %pci_conf, align 8
  %arrayidx3 = getelementptr i8, ptr %5, i64 96
  store i8 16, ptr %arrayidx3, align 1
  %6 = load ptr, ptr %pci_conf, align 8
  %7 = load ptr, ptr %u, align 8
  %info = getelementptr inbounds %struct.UHCIPCIDeviceClass, ptr %7, i32 0, i32 1
  %irq_pin = getelementptr inbounds %struct.UHCIInfo, ptr %info, i32 0, i32 4
  %8 = load i8, ptr %irq_pin, align 1
  %conv = zext i8 %8 to i32
  %add = add i32 %conv, 1
  %conv4 = trunc i32 %add to i8
  call void @pci_config_set_interrupt_pin(ptr noundef %6, i8 noundef zeroext %conv4)
  %9 = load ptr, ptr %dev.addr, align 8
  %call5 = call ptr @pci_allocate_irq(ptr noundef %9)
  %10 = load ptr, ptr %s, align 8
  %irq = getelementptr inbounds %struct.UHCIState, ptr %10, i32 0, i32 17
  store ptr %call5, ptr %irq, align 8
  %11 = load ptr, ptr %s, align 8
  %masterbus = getelementptr inbounds %struct.UHCIState, ptr %11, i32 0, i32 21
  %12 = load ptr, ptr %masterbus, align 16
  %tobool = icmp ne ptr %12, null
  br i1 %tobool, label %if.then, label %if.else

if.then:                                          ; preds = %entry
  store i32 0, ptr %i, align 4
  br label %for.cond

for.cond:                                         ; preds = %for.inc, %if.then
  %13 = load i32, ptr %i, align 4
  %cmp = icmp slt i32 %13, 2
  br i1 %cmp, label %for.body, label %for.end

for.body:                                         ; preds = %for.cond
  %14 = load ptr, ptr %s, align 8
  %ports7 = getelementptr inbounds %struct.UHCIState, ptr %14, i32 0, i32 16
  %15 = load i32, ptr %i, align 4
  %idxprom = sext i32 %15 to i64
  %arrayidx8 = getelementptr [2 x %struct.UHCIPort], ptr %ports7, i64 0, i64 %idxprom
  %port = getelementptr inbounds %struct.UHCIPort, ptr %arrayidx8, i32 0, i32 0
  %16 = load i32, ptr %i, align 4
  %idxprom9 = sext i32 %16 to i64
  %arrayidx10 = getelementptr [2 x ptr], ptr %ports, i64 0, i64 %idxprom9
  store ptr %port, ptr %arrayidx10, align 8
  br label %for.inc

for.inc:                                          ; preds = %for.body
  %17 = load i32, ptr %i, align 4
  %inc = add i32 %17, 1
  store i32 %inc, ptr %i, align 4
  br label %for.cond, !llvm.loop !5

for.end:                                          ; preds = %for.cond
  %18 = load ptr, ptr %s, align 8
  %masterbus11 = getelementptr inbounds %struct.UHCIState, ptr %18, i32 0, i32 21
  %19 = load ptr, ptr %masterbus11, align 16
  %arraydecay = getelementptr inbounds [2 x ptr], ptr %ports, i64 0, i64 0
  %20 = load ptr, ptr %s, align 8
  %firstport = getelementptr inbounds %struct.UHCIState, ptr %20, i32 0, i32 22
  %21 = load i32, ptr %firstport, align 8
  %22 = load ptr, ptr %s, align 8
  call void @usb_register_companion(ptr noundef %19, ptr noundef %arraydecay, i32 noundef 2, i32 noundef %21, ptr noundef %22, ptr noundef @uhci_port_ops, i32 noundef 3, ptr noundef %err)
  %23 = load ptr, ptr %err, align 8
  %tobool12 = icmp ne ptr %23, null
  br i1 %tobool12, label %if.then13, label %if.end

if.then13:                                        ; preds = %for.end
  %24 = load ptr, ptr %errp.addr, align 8
  %25 = load ptr, ptr %err, align 8
  call void @error_propagate(ptr noundef %24, ptr noundef %25)
  br label %return

if.end:                                           ; preds = %for.end
  br label %if.end27

if.else:                                          ; preds = %entry
  %26 = load ptr, ptr %s, align 8
  %bus = getelementptr inbounds %struct.UHCIState, ptr %26, i32 0, i32 2
  %27 = load ptr, ptr %dev.addr, align 8
  %call14 = call ptr @DEVICE(ptr noundef %27)
  call void @usb_bus_new(ptr noundef %bus, i64 noundef 192, ptr noundef @uhci_bus_ops, ptr noundef %call14)
  store i32 0, ptr %i, align 4
  br label %for.cond15

for.cond15:                                       ; preds = %for.inc24, %if.else
  %28 = load i32, ptr %i, align 4
  %cmp16 = icmp slt i32 %28, 2
  br i1 %cmp16, label %for.body18, label %for.end26

for.body18:                                       ; preds = %for.cond15
  %29 = load ptr, ptr %s, align 8
  %bus19 = getelementptr inbounds %struct.UHCIState, ptr %29, i32 0, i32 2
  %30 = load ptr, ptr %s, align 8
  %ports20 = getelementptr inbounds %struct.UHCIState, ptr %30, i32 0, i32 16
  %31 = load i32, ptr %i, align 4
  %idxprom21 = sext i32 %31 to i64
  %arrayidx22 = getelementptr [2 x %struct.UHCIPort], ptr %ports20, i64 0, i64 %idxprom21
  %port23 = getelementptr inbounds %struct.UHCIPort, ptr %arrayidx22, i32 0, i32 0
  %32 = load ptr, ptr %s, align 8
  %33 = load i32, ptr %i, align 4
  call void @usb_register_port(ptr noundef %bus19, ptr noundef %port23, ptr noundef %32, i32 noundef %33, ptr noundef @uhci_port_ops, i32 noundef 3)
  br label %for.inc24

for.inc24:                                        ; preds = %for.body18
  %34 = load i32, ptr %i, align 4
  %inc25 = add i32 %34, 1
  store i32 %inc25, ptr %i, align 4
  br label %for.cond15, !llvm.loop !7

for.end26:                                        ; preds = %for.cond15
  br label %if.end27

if.end27:                                         ; preds = %for.end26, %if.end
  %35 = load ptr, ptr %s, align 8
  %36 = load ptr, ptr %dev.addr, align 8
  %call28 = call ptr @DEVICE(ptr noundef %36)
  %mem_reentrancy_guard = getelementptr inbounds %struct.DeviceState, ptr %call28, i32 0, i32 18
  %call29 = call ptr @qemu_bh_new_full(ptr noundef @uhci_bh, ptr noundef %35, ptr noundef @.str, ptr noundef %mem_reentrancy_guard)
  %37 = load ptr, ptr %s, align 8
  %bh = getelementptr inbounds %struct.UHCIState, ptr %37, i32 0, i32 12
  store ptr %call29, ptr %bh, align 16
  %38 = load ptr, ptr %s, align 8
  %call30 = call ptr @timer_new_ns(i32 noundef 1, ptr noundef @uhci_frame_timer, ptr noundef %38)
  %39 = load ptr, ptr %s, align 8
  %frame_timer = getelementptr inbounds %struct.UHCIState, ptr %39, i32 0, i32 11
  store ptr %call30, ptr %frame_timer, align 8
  %40 = load ptr, ptr %s, align 8
  %num_ports_vmstate = getelementptr inbounds %struct.UHCIState, ptr %40, i32 0, i32 20
  store i8 2, ptr %num_ports_vmstate, align 8
  br label %do.body

do.body:                                          ; preds = %if.end27
  %41 = load ptr, ptr %s, align 8
  %queues = getelementptr inbounds %struct.UHCIState, ptr %41, i32 0, i32 19
  store ptr null, ptr %queues, align 8
  %42 = load ptr, ptr %s, align 8
  %queues31 = getelementptr inbounds %struct.UHCIState, ptr %42, i32 0, i32 19
  %43 = load ptr, ptr %s, align 8
  %queues32 = getelementptr inbounds %struct.UHCIState, ptr %43, i32 0, i32 19
  %tql_prev = getelementptr inbounds %struct.QTailQLink, ptr %queues32, i32 0, i32 1
  store ptr %queues31, ptr %tql_prev, align 8
  br label %do.end

do.end:                                           ; preds = %do.body
  %44 = load ptr, ptr %s, align 8
  %io_bar = getelementptr inbounds %struct.UHCIState, ptr %44, i32 0, i32 1
  %45 = load ptr, ptr %s, align 8
  %46 = load ptr, ptr %s, align 8
  call void @memory_region_init_io(ptr noundef %io_bar, ptr noundef %45, ptr noundef @uhci_ioport_ops, ptr noundef %46, ptr noundef @.str.1, i64 noundef 32)
  %47 = load ptr, ptr %s, align 8
  %dev33 = getelementptr inbounds %struct.UHCIState, ptr %47, i32 0, i32 0
  %48 = load ptr, ptr %s, align 8
  %io_bar34 = getelementptr inbounds %struct.UHCIState, ptr %48, i32 0, i32 1
  call void @pci_register_bar(ptr noundef %dev33, i32 noundef 4, i8 noundef zeroext 1, ptr noundef %io_bar34)
  br label %return

return:                                           ; preds = %do.end, %if.then13
  ret void
}