; Function Attrs: nounwind sspstrong uwtable
define dso_local void @usb_uhci_common_realize(ptr noundef %dev, ptr noundef %errp) #0 {
entry:
  %err = alloca ptr, align 8
  %ports = alloca [2 x ptr], align 16
  store ptr null, ptr %err, align 8
  %call.i = tail call ptr @object_get_class(ptr noundef %dev) #11
  %call1.i = tail call ptr @object_class_dynamic_cast_assert(ptr noundef %call.i, ptr noundef nonnull @.str.2, ptr noundef nonnull @.str.3, i32 noundef 78, ptr noundef nonnull @__func__.UHCI_GET_CLASS) #11
  %call.i37 = tail call ptr @object_dynamic_cast_assert(ptr noundef %dev, ptr noundef nonnull @.str.2, ptr noundef nonnull @.str.3, i32 noundef 78, ptr noundef nonnull @__func__.UHCI) #11
  %config = getelementptr inbounds nuw i8, ptr %call.i37, i64 168
  %0 = load ptr, ptr %config, align 8
  %arrayidx = getelementptr i8, ptr %0, i64 9
  store i8 0, ptr %arrayidx, align 1
  %arrayidx3 = getelementptr i8, ptr %0, i64 96
  store i8 16, ptr %arrayidx3, align 1
  %irq_pin = getelementptr inbounds nuw i8, ptr %call1.i, i64 245
  %1 = load i8, ptr %irq_pin, align 1
  %add = add i8 %1, 1
  %arrayidx.i = getelementptr i8, ptr %0, i64 61
  store i8 %add, ptr %arrayidx.i, align 1
  %call5 = tail call ptr @pci_allocate_irq(ptr noundef %dev) #11
  %irq = getelementptr inbounds nuw i8, ptr %call.i37, i64 3288
  store ptr %call5, ptr %irq, align 8
  %masterbus = getelementptr inbounds nuw i8, ptr %call.i37, i64 3328
  %2 = load ptr, ptr %masterbus, align 16
  %tobool.not = icmp eq ptr %2, null
  br i1 %tobool.not, label %if.else, label %for.cond.preheader

for.cond.preheader:                               ; preds = %entry
  %ports7 = getelementptr inbounds nuw i8, ptr %call.i37, i64 3128
  store ptr %ports7, ptr %ports, align 16
  %arrayidx8.c = getelementptr i8, ptr %call.i37, i64 3208
  %arrayidx10.c = getelementptr inbounds nuw i8, ptr %ports, i64 8
  store ptr %arrayidx8.c, ptr %arrayidx10.c, align 8
  %firstport = getelementptr inbounds nuw i8, ptr %call.i37, i64 3336
  %3 = load i32, ptr %firstport, align 8
  call void @usb_register_companion(ptr noundef nonnull %2, ptr noundef nonnull %ports, i32 noundef 2, i32 noundef %3, ptr noundef %call.i37, ptr noundef nonnull @uhci_port_ops, i32 noundef 3, ptr noundef nonnull %err) #11
  %4 = load ptr, ptr %err, align 8
  %tobool12.not = icmp eq ptr %4, null
  br i1 %tobool12.not, label %if.end27, label %if.then13

if.then13:                                        ; preds = %for.cond.preheader
  call void @error_propagate(ptr noundef %errp, ptr noundef nonnull %4) #11
  br label %return

if.else:                                          ; preds = %entry
  %bus = getelementptr inbounds nuw i8, ptr %call.i37, i64 2880
  %call.i38 = tail call ptr @object_dynamic_cast_assert(ptr noundef %dev, ptr noundef nonnull @.str.13, ptr noundef nonnull @.str.14, i32 noundef 77, ptr noundef nonnull @__func__.DEVICE) #11
  tail call void @usb_bus_new(ptr noundef nonnull %bus, i64 noundef 192, ptr noundef nonnull @uhci_bus_ops, ptr noundef %call.i38) #11
  %ports20 = getelementptr inbounds nuw i8, ptr %call.i37, i64 3128
  tail call void @usb_register_port(ptr noundef nonnull %bus, ptr noundef nonnull %ports20, ptr noundef nonnull %call.i37, i32 noundef 0, ptr noundef nonnull @uhci_port_ops, i32 noundef 3) #11
  %arrayidx22.c = getelementptr i8, ptr %call.i37, i64 3208
  tail call void @usb_register_port(ptr noundef nonnull %bus, ptr noundef %arrayidx22.c, ptr noundef nonnull %call.i37, i32 noundef 1, ptr noundef nonnull @uhci_port_ops, i32 noundef 3) #11
  br label %if.end27

if.end27:                                         ; preds = %if.else, %for.cond.preheader
  %call.i39 = call ptr @object_dynamic_cast_assert(ptr noundef %dev, ptr noundef nonnull @.str.13, ptr noundef nonnull @.str.14, i32 noundef 77, ptr noundef nonnull @__func__.DEVICE) #11
  %mem_reentrancy_guard = getelementptr inbounds nuw i8, ptr %call.i39, i64 152
  %call29 = call ptr @qemu_bh_new_full(ptr noundef nonnull @uhci_bh, ptr noundef nonnull %call.i37, ptr noundef nonnull @.str, ptr noundef nonnull %mem_reentrancy_guard) #11
  %bh = getelementptr inbounds nuw i8, ptr %call.i37, i64 3104
  store ptr %call29, ptr %bh, align 16
  %call.i.i.i = call noalias dereferenceable_or_null(48) ptr @g_malloc0_n(i64 noundef 1, i64 noundef 48) #12
  call void @timer_init_full(ptr noundef %call.i.i.i, ptr noundef null, i32 noundef 1, i32 noundef 1, i32 noundef 0, ptr noundef nonnull @uhci_frame_timer, ptr noundef nonnull %call.i37) #11
  %frame_timer = getelementptr inbounds nuw i8, ptr %call.i37, i64 3096
  store ptr %call.i.i.i, ptr %frame_timer, align 8
  %num_ports_vmstate = getelementptr inbounds nuw i8, ptr %call.i37, i64 3320
  store i8 2, ptr %num_ports_vmstate, align 8
  %queues = getelementptr inbounds nuw i8, ptr %call.i37, i64 3304
  store ptr null, ptr %queues, align 8
  %tql_prev = getelementptr inbounds nuw i8, ptr %call.i37, i64 3312
  store ptr %queues, ptr %tql_prev, align 8
  %io_bar = getelementptr inbounds nuw i8, ptr %call.i37, i64 2608
  call void @memory_region_init_io(ptr noundef nonnull %io_bar, ptr noundef nonnull %call.i37, ptr noundef nonnull @uhci_ioport_ops, ptr noundef nonnull %call.i37, ptr noundef nonnull @.str.1, i64 noundef 32) #11
  call void @pci_register_bar(ptr noundef nonnull %call.i37, i32 noundef 4, i8 noundef zeroext 1, ptr noundef nonnull %io_bar) #11
  br label %return

return:                                           ; preds = %if.end27, %if.then13
  ret void
}